; Function Attrs: nounwind uwtable
define i32 @Gia_ManRexNumInputs(ptr noundef readonly captures(none) %0, ptr noundef writeonly captures(none) %1, ptr noundef writeonly captures(none) %2) local_unnamed_addr #0 {
  %4 = tail call i64 @strlen(ptr noundef nonnull dereferenceable(1) %0) #23
  %5 = trunc i64 %4 to i32
  %6 = tail call noalias dereferenceable_or_null(16) ptr @malloc(i64 noundef 16) #25
  %7 = getelementptr inbounds nuw i8, ptr %6, i64 4
  store i32 0, ptr %7, align 4
  store i32 100, ptr %6, align 8
  %8 = tail call noalias dereferenceable_or_null(400) ptr @malloc(i64 noundef 400) #25
  %9 = getelementptr inbounds nuw i8, ptr %6, i64 8
  store ptr %8, ptr %9, align 8
  %10 = add nsw i32 %5, 1
  %11 = tail call noalias dereferenceable_or_null(16) ptr @malloc(i64 noundef 16) #25
  %or.cond.i.i = icmp ult i32 %5, 15
  %spec.store.select.i.i = select i1 %or.cond.i.i, i32 16, i32 %10
  %12 = getelementptr inbounds nuw i8, ptr %11, i64 4
  store i32 %spec.store.select.i.i, ptr %11, align 8
  %.not.i.i = icmp eq i32 %spec.store.select.i.i, 0
  br i1 %.not.i.i, label %Vec_IntAlloc.exit.thread.i, label %Vec_IntAlloc.exit.i

Vec_IntAlloc.exit.thread.i:                       ; preds = %3
  %13 = getelementptr inbounds nuw i8, ptr %11, i64 8
  store ptr null, ptr %13, align 8
  store i32 %10, ptr %12, align 4
  br label %Vec_IntStartFull.exit

Vec_IntAlloc.exit.i:                              ; preds = %3
  %14 = sext i32 %spec.store.select.i.i to i64
  %15 = shl nsw i64 %14, 2
  %16 = tail call noalias ptr @malloc(i64 noundef %15) #25
  %17 = getelementptr inbounds nuw i8, ptr %11, i64 8
  store ptr %16, ptr %17, align 8
  store i32 %10, ptr %12, align 4
  %.not.i = icmp eq ptr %16, null
  br i1 %.not.i, label %Vec_IntStartFull.exit, label %18

18:                                               ; preds = %Vec_IntAlloc.exit.i
  %19 = sext i32 %10 to i64
  %20 = shl nsw i64 %19, 2
  tail call void @llvm.memset.p0.i64(ptr nonnull align 4 %16, i8 -1, i64 %20, i1 false)
  br label %Vec_IntStartFull.exit

Vec_IntStartFull.exit:                            ; preds = %Vec_IntAlloc.exit.thread.i, %Vec_IntAlloc.exit.i, %18
  %.val34 = phi ptr [ null, %Vec_IntAlloc.exit.thread.i ], [ null, %Vec_IntAlloc.exit.i ], [ %16, %18 ]
  %21 = icmp sgt i32 %5, 0
  br i1 %21, label %.lr.ph, label %._crit_edge

.lr.ph:                                           ; preds = %Vec_IntStartFull.exit
  %22 = getelementptr i8, ptr %11, i64 8
  %wide.trip.count = and i64 %4, 2147483647
  br label %23

23:                                               ; preds = %.lr.ph, %64
  %.val31 = phi ptr [ %.val34, %.lr.ph ], [ %.val32, %64 ]
  %indvars.iv = phi i64 [ 0, %.lr.ph ], [ %indvars.iv.next, %64 ]
  %.02327 = phi i32 [ 0, %.lr.ph ], [ %.1, %64 ]
  %24 = getelementptr inbounds nuw i8, ptr %0, i64 %indvars.iv
  %25 = load i8, ptr %24, align 1
  switch i8 %25, label %26 [
    i8 124, label %64
    i8 42, label %64
    i8 41, label %64
    i8 40, label %64
  ]

26:                                               ; preds = %23
  %27 = sext i8 %25 to i32
  %28 = load i32, ptr %7, align 4
  %29 = icmp sgt i32 %28, 0
  br i1 %29, label %.lr.ph.i, label %Vec_IntFind.exit.thread

.lr.ph.i:                                         ; preds = %26
  %30 = load ptr, ptr %9, align 8
  %wide.trip.count.i = zext nneg i32 %28 to i64
  br label %31

31:                                               ; preds = %35, %.lr.ph.i
  %indvars.iv.i = phi i64 [ 0, %.lr.ph.i ], [ %indvars.iv.next.i, %35 ]
  %32 = getelementptr inbounds nuw i32, ptr %30, i64 %indvars.iv.i
  %33 = load i32, ptr %32, align 4
  %34 = icmp eq i32 %33, %27
  br i1 %34, label %Vec_IntFind.exit, label %35

35:                                               ; preds = %31
  %indvars.iv.next.i = add nuw nsw i64 %indvars.iv.i, 1
  %exitcond.not.i = icmp eq i64 %indvars.iv.next.i, %wide.trip.count.i
  br i1 %exitcond.not.i, label %Vec_IntFind.exit.thread, label %31, !llvm.loop !6

Vec_IntFind.exit.thread:                          ; preds = %35, %26
  %36 = load i32, ptr %6, align 8
  %37 = icmp eq i32 %28, %36
  br i1 %37, label %38, label %.Vec_IntGrow.exit10_crit_edge.i

.Vec_IntGrow.exit10_crit_edge.i:                  ; preds = %Vec_IntFind.exit.thread
  %.pre.i = load ptr, ptr %9, align 8
  br label %Vec_IntPush.exit

38:                                               ; preds = %Vec_IntFind.exit.thread
  %39 = icmp slt i32 %28, 16
  br i1 %39, label %40, label %47

40:                                               ; preds = %38
  %41 = load ptr, ptr %9, align 8
  %.not9.i.i = icmp eq ptr %41, null
  br i1 %.not9.i.i, label %44, label %42

42:                                               ; preds = %40
  %43 = tail call dereferenceable_or_null(64) ptr @realloc(ptr noundef nonnull %41, i64 noundef 64) #26
  br label %Vec_IntGrow.exit.i

44:                                               ; preds = %40
  %45 = tail call noalias dereferenceable_or_null(64) ptr @malloc(i64 noundef 64) #25
  br label %Vec_IntGrow.exit.i

Vec_IntGrow.exit.i:                               ; preds = %44, %42
  %46 = phi ptr [ %43, %42 ], [ %45, %44 ]
  store ptr %46, ptr %9, align 8
  store i32 16, ptr %6, align 8
  br label %Vec_IntPush.exit

47:                                               ; preds = %38
  %48 = shl nuw nsw i32 %28, 1
  %49 = load ptr, ptr %9, align 8
  %.not9.i9.i = icmp eq ptr %49, null
  %50 = zext nneg i32 %48 to i64
  %51 = shl nuw nsw i64 %50, 2
  br i1 %.not9.i9.i, label %54, label %52

52:                                               ; preds = %47
  %53 = tail call ptr @realloc(ptr noundef nonnull %49, i64 noundef %51) #26
  br label %56

54:                                               ; preds = %47
  %55 = tail call noalias ptr @malloc(i64 noundef %51) #25
  br label %56

56:                                               ; preds = %54, %52
  %57 = phi ptr [ %53, %52 ], [ %55, %54 ]
  store ptr %57, ptr %9, align 8
  store i32 %48, ptr %6, align 8
  br label %Vec_IntPush.exit

Vec_IntPush.exit:                                 ; preds = %.Vec_IntGrow.exit10_crit_edge.i, %Vec_IntGrow.exit.i, %56
  %58 = phi ptr [ %.pre.i, %.Vec_IntGrow.exit10_crit_edge.i ], [ %57, %56 ], [ %46, %Vec_IntGrow.exit.i ]
  %59 = add nsw i32 %28, 1
  store i32 %59, ptr %7, align 4
  %60 = sext i32 %28 to i64
  %61 = getelementptr inbounds i32, ptr %58, i64 %60
  store i32 %27, ptr %61, align 4
  %.val.pre = load ptr, ptr %22, align 8
  br label %Vec_IntFind.exit

Vec_IntFind.exit:                                 ; preds = %31, %Vec_IntPush.exit
  %.val = phi ptr [ %.val.pre, %Vec_IntPush.exit ], [ %.val31, %31 ]
  %62 = add nsw i32 %.02327, 1
  %63 = getelementptr inbounds nuw i32, ptr %.val, i64 %indvars.iv
  store i32 %.02327, ptr %63, align 4
  br label %64

64:                                               ; preds = %23, %23, %23, %23, %Vec_IntFind.exit
  %.val32 = phi ptr [ %.val31, %23 ], [ %.val, %Vec_IntFind.exit ], [ %.val31, %23 ], [ %.val31, %23 ], [ %.val31, %23 ]
  %.1 = phi i32 [ %.02327, %23 ], [ %62, %Vec_IntFind.exit ], [ %.02327, %23 ], [ %.02327, %23 ], [ %.02327, %23 ]
  %indvars.iv.next = add nuw nsw i64 %indvars.iv, 1
  %exitcond.not = icmp eq i64 %indvars.iv.next, %wide.trip.count
  br i1 %exitcond.not, label %._crit_edge.loopexit, label %23, !llvm.loop !12

._crit_edge.loopexit:                             ; preds = %64
  %.val24.pre = load ptr, ptr %22, align 8
  %65 = and i64 %4, 2147483647
  br label %._crit_edge

._crit_edge:                                      ; preds = %Vec_IntStartFull.exit, %._crit_edge.loopexit
  %.val24 = phi ptr [ %.val24.pre, %._crit_edge.loopexit ], [ %.val34, %Vec_IntStartFull.exit ]
  %.023.lcssa = phi i32 [ %.1, %._crit_edge.loopexit ], [ 0, %Vec_IntStartFull.exit ]
  %.0.lcssa = phi i64 [ %65, %._crit_edge.loopexit ], [ 0, %Vec_IntStartFull.exit ]
  %66 = getelementptr inbounds nuw i32, ptr %.val24, i64 %.0.lcssa
  store i32 %.023.lcssa, ptr %66, align 4
  store ptr %6, ptr %1, align 8
  store ptr %11, ptr %2, align 8
  ret i32 %.023.lcssa
}